target datalayout = "e-m:e-p270:32:32-p271:32:32-p272:64:64-i64:64-i128:128-f80:128-n8:16:32:64-S128"
target triple = "x86_64-pc-linux-gnu"

%struct.stbi_io_callbacks = type { ptr, ptr, ptr }
%struct.stbi__context = type { i32, i32, i32, i32, %struct.stbi_io_callbacks, ptr, i32, i32, [128 x i8], i32, ptr, ptr, ptr, ptr }

@stbi__vertically_flip_on_load_global = global i32 0, align 4
@stbi__vertically_flip_on_load_local = thread_local global i32 0, align 4
@stbi__vertically_flip_on_load_set = thread_local global i32 0, align 4

; Function Attrs: nounwind uwtable
define void @stbi__vertical_flip(ptr noundef %0, i32 noundef %1, i32 noundef %2, i32 noundef %3) #0 {
  %5 = alloca ptr, align 8
  %6 = alloca i32, align 4
  %7 = alloca i32, align 4
  %8 = alloca i32, align 4
  %9 = alloca i32, align 4
  %10 = alloca i64, align 8
  %11 = alloca [2048 x i8], align 16
  %12 = alloca ptr, align 8
  %13 = alloca ptr, align 8
  %14 = alloca ptr, align 8
  %15 = alloca i64, align 8
  %16 = alloca i64, align 8
  store ptr %0, ptr %5, align 8, !tbaa !3
  store i32 %1, ptr %6, align 4, !tbaa !9
  store i32 %2, ptr %7, align 4, !tbaa !9
  store i32 %3, ptr %8, align 4, !tbaa !9
  call void @llvm.lifetime.start.p0(i64 4, ptr %9) #13
  call void @llvm.lifetime.start.p0(i64 8, ptr %10) #13
  %17 = load i32, ptr %6, align 4, !tbaa !9
  %18 = sext i32 %17 to i64
  %19 = load i32, ptr %8, align 4, !tbaa !9
  %20 = sext i32 %19 to i64
  %21 = mul i64 %18, %20
  store i64 %21, ptr %10, align 8, !tbaa !26
  call void @llvm.lifetime.start.p0(i64 2048, ptr %11) #13
  call void @llvm.lifetime.start.p0(i64 8, ptr %12) #13
  %22 = load ptr, ptr %5, align 8, !tbaa !3
  store ptr %22, ptr %12, align 8, !tbaa !7
  store i32 0, ptr %9, align 4, !tbaa !9
  br label %23

23:                                               ; preds = %75, %4
  %24 = load i32, ptr %9, align 4, !tbaa !9
  %25 = load i32, ptr %7, align 4, !tbaa !9
  %26 = ashr i32 %25, 1
  %27 = icmp slt i32 %24, %26
  br i1 %27, label %28, label %78

28:                                               ; preds = %23
  call void @llvm.lifetime.start.p0(i64 8, ptr %13) #13
  %29 = load ptr, ptr %12, align 8, !tbaa !7
  %30 = load i32, ptr %9, align 4, !tbaa !9
  %31 = sext i32 %30 to i64
  %32 = load i64, ptr %10, align 8, !tbaa !26
  %33 = mul i64 %31, %32
  %34 = getelementptr inbounds nuw i8, ptr %29, i64 %33
  store ptr %34, ptr %13, align 8, !tbaa !7
  call void @llvm.lifetime.start.p0(i64 8, ptr %14) #13
  %35 = load ptr, ptr %12, align 8, !tbaa !7
  %36 = load i32, ptr %7, align 4, !tbaa !9
  %37 = load i32, ptr %9, align 4, !tbaa !9
  %38 = sub nsw i32 %36, %37
  %39 = sub nsw i32 %38, 1
  %40 = sext i32 %39 to i64
  %41 = load i64, ptr %10, align 8, !tbaa !26
  %42 = mul i64 %40, %41
  %43 = getelementptr inbounds nuw i8, ptr %35, i64 %42
  store ptr %43, ptr %14, align 8, !tbaa !7
  call void @llvm.lifetime.start.p0(i64 8, ptr %15) #13
  %44 = load i64, ptr %10, align 8, !tbaa !26
  store i64 %44, ptr %15, align 8, !tbaa !26
  br label %45

45:                                               ; preds = %54, %28
  %46 = load i64, ptr %15, align 8, !tbaa !26
  %47 = icmp ne i64 %46, 0
  br i1 %47, label %48, label %74

48:                                               ; preds = %45
  call void @llvm.lifetime.start.p0(i64 8, ptr %16) #13
  %49 = load i64, ptr %15, align 8, !tbaa !26
  %50 = icmp ult i64 %49, 2048
  br i1 %50, label %51, label %53

51:                                               ; preds = %48
  %52 = load i64, ptr %15, align 8, !tbaa !26
  br label %54

53:                                               ; preds = %48
  br label %54

54:                                               ; preds = %53, %51
  %55 = phi i64 [ %52, %51 ], [ 2048, %53 ]
  store i64 %55, ptr %16, align 8, !tbaa !26
  %56 = getelementptr inbounds [2048 x i8], ptr %11, i64 0, i64 0
  %57 = load ptr, ptr %13, align 8, !tbaa !7
  %58 = load i64, ptr %16, align 8, !tbaa !26
  call void @llvm.memcpy.p0.p0.i64(ptr align 16 %56, ptr align 1 %57, i64 %58, i1 false)
  %59 = load ptr, ptr %13, align 8, !tbaa !7
  %60 = load ptr, ptr %14, align 8, !tbaa !7
  %61 = load i64, ptr %16, align 8, !tbaa !26
  call void @llvm.memcpy.p0.p0.i64(ptr align 1 %59, ptr align 1 %60, i64 %61, i1 false)
  %62 = load ptr, ptr %14, align 8, !tbaa !7
  %63 = getelementptr inbounds [2048 x i8], ptr %11, i64 0, i64 0
  %64 = load i64, ptr %16, align 8, !tbaa !26
  call void @llvm.memcpy.p0.p0.i64(ptr align 1 %62, ptr align 16 %63, i64 %64, i1 false)
  %65 = load i64, ptr %16, align 8, !tbaa !26
  %66 = load ptr, ptr %13, align 8, !tbaa !7
  %67 = getelementptr inbounds nuw i8, ptr %66, i64 %65
  store ptr %67, ptr %13, align 8, !tbaa !7
  %68 = load i64, ptr %16, align 8, !tbaa !26
  %69 = load ptr, ptr %14, align 8, !tbaa !7
  %70 = getelementptr inbounds nuw i8, ptr %69, i64 %68
  store ptr %70, ptr %14, align 8, !tbaa !7
  %71 = load i64, ptr %16, align 8, !tbaa !26
  %72 = load i64, ptr %15, align 8, !tbaa !26
  %73 = sub i64 %72, %71
  store i64 %73, ptr %15, align 8, !tbaa !26
  call void @llvm.lifetime.end.p0(i64 8, ptr %16) #13
  br label %45, !llvm.loop !110

74:                                               ; preds = %45
  call void @llvm.lifetime.end.p0(i64 8, ptr %15) #13
  call void @llvm.lifetime.end.p0(i64 8, ptr %14) #13
  call void @llvm.lifetime.end.p0(i64 8, ptr %13) #13
  br label %75

75:                                               ; preds = %74
  %76 = load i32, ptr %9, align 4, !tbaa !9
  %77 = add nsw i32 %76, 1
  store i32 %77, ptr %9, align 4, !tbaa !9
  br label %23, !llvm.loop !111

78:                                               ; preds = %23
  call void @llvm.lifetime.end.p0(i64 8, ptr %12) #13
  call void @llvm.lifetime.end.p0(i64 2048, ptr %11) #13
  call void @llvm.lifetime.end.p0(i64 8, ptr %10) #13
  call void @llvm.lifetime.end.p0(i64 4, ptr %9) #13
  ret void
}

; Function Attrs: nounwind uwtable
define void @stbi__vertical_flip_slices(ptr noundef %0, i32 noundef %1, i32 noundef %2, i32 noundef %3, i32 noundef %4) #0 {
  %6 = alloca ptr, align 8
  %7 = alloca i32, align 4
  %8 = alloca i32, align 4
  %9 = alloca i32, align 4
  %10 = alloca i32, align 4
  %11 = alloca i32, align 4
  %12 = alloca i32, align 4
  %13 = alloca ptr, align 8
  store ptr %0, ptr %6, align 8, !tbaa !3
  store i32 %1, ptr %7, align 4, !tbaa !9
  store i32 %2, ptr %8, align 4, !tbaa !9
  store i32 %3, ptr %9, align 4, !tbaa !9
  store i32 %4, ptr %10, align 4, !tbaa !9
  call void @llvm.lifetime.start.p0(i64 4, ptr %11) #13
  call void @llvm.lifetime.start.p0(i64 4, ptr %12) #13
  %14 = load i32, ptr %7, align 4, !tbaa !9
  %15 = load i32, ptr %8, align 4, !tbaa !9
  %16 = mul nsw i32 %14, %15
  %17 = load i32, ptr %10, align 4, !tbaa !9
  %18 = mul nsw i32 %16, %17
  store i32 %18, ptr %12, align 4, !tbaa !9
  call void @llvm.lifetime.start.p0(i64 8, ptr %13) #13
  %19 = load ptr, ptr %6, align 8, !tbaa !3
  store ptr %19, ptr %13, align 8, !tbaa !7
  store i32 0, ptr %11, align 4, !tbaa !9
  br label %20

20:                                               ; preds = %33, %5
  %21 = load i32, ptr %11, align 4, !tbaa !9
  %22 = load i32, ptr %9, align 4, !tbaa !9
  %23 = icmp slt i32 %21, %22
  br i1 %23, label %24, label %36

24:                                               ; preds = %20
  %25 = load ptr, ptr %13, align 8, !tbaa !7
  %26 = load i32, ptr %7, align 4, !tbaa !9
  %27 = load i32, ptr %8, align 4, !tbaa !9
  %28 = load i32, ptr %10, align 4, !tbaa !9
  call void @stbi__vertical_flip(ptr noundef %25, i32 noundef %26, i32 noundef %27, i32 noundef %28)
  %29 = load i32, ptr %12, align 4, !tbaa !9
  %30 = load ptr, ptr %13, align 8, !tbaa !7
  %31 = sext i32 %29 to i64
  %32 = getelementptr inbounds i8, ptr %30, i64 %31
  store ptr %32, ptr %13, align 8, !tbaa !7
  br label %33

33:                                               ; preds = %24
  %34 = load i32, ptr %11, align 4, !tbaa !9
  %35 = add nsw i32 %34, 1
  store i32 %35, ptr %11, align 4, !tbaa !9
  br label %20, !llvm.loop !112

36:                                               ; preds = %20
  call void @llvm.lifetime.end.p0(i64 8, ptr %13) #13
  call void @llvm.lifetime.end.p0(i64 4, ptr %12) #13
  call void @llvm.lifetime.end.p0(i64 4, ptr %11) #13
  ret void
}

; Function Attrs: nounwind uwtable
define void @stbi__start_mem(ptr noundef %0, ptr noundef %1, i32 noundef %2) #0 {
  %4 = alloca ptr, align 8
  %5 = alloca ptr, align 8
  %6 = alloca i32, align 4
  store ptr %0, ptr %4, align 8, !tbaa !3
  store ptr %1, ptr %5, align 8, !tbaa !7
  store i32 %2, ptr %6, align 4, !tbaa !9
  %7 = load ptr, ptr %4, align 8, !tbaa !3
  %8 = getelementptr inbounds nuw %struct.stbi__context, ptr %7, i32 0, i32 4
  %9 = getelementptr inbounds nuw %struct.stbi_io_callbacks, ptr %8, i32 0, i32 0
  store ptr null, ptr %9, align 8, !tbaa !11
  %10 = load ptr, ptr %4, align 8, !tbaa !3
  %11 = getelementptr inbounds nuw %struct.stbi__context, ptr %10, i32 0, i32 6
  store i32 0, ptr %11, align 8, !tbaa !14
  %12 = load ptr, ptr %4, align 8, !tbaa !3
  %13 = getelementptr inbounds nuw %struct.stbi__context, ptr %12, i32 0, i32 9
  store i32 0, ptr %13, align 8, !tbaa !15
  %14 = load ptr, ptr %5, align 8, !tbaa !7
  %15 = load ptr, ptr %4, align 8, !tbaa !3
  %16 = getelementptr inbounds nuw %struct.stbi__context, ptr %15, i32 0, i32 12
  store ptr %14, ptr %16, align 8, !tbaa !16
  %17 = load ptr, ptr %4, align 8, !tbaa !3
  %18 = getelementptr inbounds nuw %struct.stbi__context, ptr %17, i32 0, i32 10
  store ptr %14, ptr %18, align 8, !tbaa !17
  %19 = load ptr, ptr %5, align 8, !tbaa !7
  %20 = load i32, ptr %6, align 4, !tbaa !9
  %21 = sext i32 %20 to i64
  %22 = getelementptr inbounds i8, ptr %19, i64 %21
  %23 = load ptr, ptr %4, align 8, !tbaa !3
  %24 = getelementptr inbounds nuw %struct.stbi__context, ptr %23, i32 0, i32 13
  store ptr %22, ptr %24, align 8, !tbaa !18
  %25 = load ptr, ptr %4, align 8, !tbaa !3
  %26 = getelementptr inbounds nuw %struct.stbi__context, ptr %25, i32 0, i32 11
  store ptr %22, ptr %26, align 8, !tbaa !19
  ret void
}

; Function Attrs: nounwind uwtable
define ptr @stbi_load_gif_from_memory(ptr noundef %0, i32 noundef %1, ptr noundef %2, ptr noundef %3, ptr noundef %4, ptr noundef %5, ptr noundef %6, i32 noundef %7) #0 {
  %9 = alloca ptr, align 8
  %10 = alloca i32, align 4
  %11 = alloca ptr, align 8
  %12 = alloca ptr, align 8
  %13 = alloca ptr, align 8
  %14 = alloca ptr, align 8
  %15 = alloca ptr, align 8
  %16 = alloca i32, align 4
  %17 = alloca ptr, align 8
  %18 = alloca %struct.stbi__context, align 8
  store ptr %0, ptr %9, align 8, !tbaa !7
  store i32 %1, ptr %10, align 4, !tbaa !9
  store ptr %2, ptr %11, align 8, !tbaa !113
  store ptr %3, ptr %12, align 8, !tbaa !28
  store ptr %4, ptr %13, align 8, !tbaa !28
  store ptr %5, ptr %14, align 8, !tbaa !28
  store ptr %6, ptr %15, align 8, !tbaa !28
  store i32 %7, ptr %16, align 4, !tbaa !9
  call void @llvm.lifetime.start.p0(i64 8, ptr %17) #13
  call void @llvm.lifetime.start.p0(i64 224, ptr %18) #13
  %19 = load ptr, ptr %9, align 8, !tbaa !7
  %20 = load i32, ptr %10, align 4, !tbaa !9
  call void @stbi__start_mem(ptr noundef %18, ptr noundef %19, i32 noundef %20)
  %21 = load ptr, ptr %11, align 8, !tbaa !113
  %22 = load ptr, ptr %12, align 8, !tbaa !28
  %23 = load ptr, ptr %13, align 8, !tbaa !28
  %24 = load ptr, ptr %14, align 8, !tbaa !28
  %25 = load ptr, ptr %15, align 8, !tbaa !28
  %26 = load i32, ptr %16, align 4, !tbaa !9
  %27 = call ptr @stbi__load_gif_main(ptr noundef %18, ptr noundef %21, ptr noundef %22, ptr noundef %23, ptr noundef %24, ptr noundef %25, i32 noundef %26)
  store ptr %27, ptr %17, align 8, !tbaa !7
  %28 = call align 4 ptr @llvm.threadlocal.address.p0(ptr align 4 @stbi__vertically_flip_on_load_set)
  %29 = load i32, ptr %28, align 4, !tbaa !9
  %30 = icmp ne i32 %29, 0
  br i1 %30, label %31, label %35

31:                                               ; preds = %8
  %32 = call align 4 ptr @llvm.threadlocal.address.p0(ptr align 4 @stbi__vertically_flip_on_load_local)
  %33 = load i32, ptr %32, align 4, !tbaa !9
  %34 = icmp ne i32 %33, 0
  br i1 %34, label %38, label %48

35:                                               ; preds = %8
  %36 = load i32, ptr @stbi__vertically_flip_on_load_global, align 4, !tbaa !9
  %37 = icmp ne i32 %36, 0
  br i1 %37, label %38, label %48

38:                                               ; preds = %35, %31
  %39 = load ptr, ptr %17, align 8, !tbaa !7
  %40 = load ptr, ptr %12, align 8, !tbaa !28
  %41 = load i32, ptr %40, align 4, !tbaa !9
  %42 = load ptr, ptr %13, align 8, !tbaa !28
  %43 = load i32, ptr %42, align 4, !tbaa !9
  %44 = load ptr, ptr %14, align 8, !tbaa !28
  %45 = load i32, ptr %44, align 4, !tbaa !9
  %46 = load ptr, ptr %15, align 8, !tbaa !28
  %47 = load i32, ptr %46, align 4, !tbaa !9
  call void @stbi__vertical_flip_slices(ptr noundef %39, i32 noundef %41, i32 noundef %43, i32 noundef %45, i32 noundef %47)
  br label %48

48:                                               ; preds = %38, %35, %31
  %49 = load ptr, ptr %17, align 8, !tbaa !7
  call void @llvm.lifetime.end.p0(i64 224, ptr %18) #13
  call void @llvm.lifetime.end.p0(i64 8, ptr %17) #13
  ret ptr %49
}