; Function Attrs: nounwind uwtable
define noundef ptr @stbi_load_gif_from_memory(ptr noundef %0, i32 noundef %1, ptr noundef captures(address_is_null) %2, ptr noundef captures(none) %3, ptr noundef captures(none) %4, ptr noundef captures(none) %5, ptr noundef captures(address_is_null) %6, i32 noundef %7) local_unnamed_addr #2 {
  %9 = alloca [2048 x i8], align 16
  %10 = alloca %struct.stbi__context, align 8
  call void @llvm.lifetime.start.p0(i64 224, ptr nonnull %10) #37
  %11 = getelementptr inbounds nuw i8, ptr %10, i64 16
  store ptr null, ptr %11, align 8, !tbaa !3
  %12 = getelementptr inbounds nuw i8, ptr %10, i64 48
  store i32 0, ptr %12, align 8, !tbaa !11
  %13 = getelementptr inbounds nuw i8, ptr %10, i64 184
  store i32 0, ptr %13, align 8, !tbaa !12
  %14 = getelementptr inbounds nuw i8, ptr %10, i64 208
  store ptr %0, ptr %14, align 8, !tbaa !13
  %15 = getelementptr inbounds nuw i8, ptr %10, i64 192
  store ptr %0, ptr %15, align 8, !tbaa !14
  %16 = sext i32 %1 to i64
  %17 = getelementptr inbounds i8, ptr %0, i64 %16
  %18 = getelementptr inbounds nuw i8, ptr %10, i64 216
  store ptr %17, ptr %18, align 8, !tbaa !15
  %19 = getelementptr inbounds nuw i8, ptr %10, i64 200
  store ptr %17, ptr %19, align 8, !tbaa !16
  %20 = call ptr @stbi__load_gif_main(ptr noundef nonnull %10, ptr noundef %2, ptr noundef %3, ptr noundef %4, ptr noundef %5, ptr noundef %6, i32 noundef %7)
  %21 = call align 4 ptr @llvm.threadlocal.address.p0(ptr align 4 @stbi__vertically_flip_on_load_set)
  %22 = load i32, ptr %21, align 4, !tbaa !23
  %.not = icmp eq i32 %22, 0
  br i1 %.not, label %26, label %23

23:                                               ; preds = %8
  %24 = call align 4 ptr @llvm.threadlocal.address.p0(ptr align 4 @stbi__vertically_flip_on_load_local)
  %25 = load i32, ptr %24, align 4, !tbaa !23
  %.not14 = icmp eq i32 %25, 0
  br i1 %.not14, label %stbi__vertical_flip_slices.exit, label %28

26:                                               ; preds = %8
  %27 = load i32, ptr @stbi__vertically_flip_on_load_global, align 4, !tbaa !23
  %.not13 = icmp eq i32 %27, 0
  br i1 %.not13, label %stbi__vertical_flip_slices.exit, label %28

28:                                               ; preds = %26, %23
  %29 = load i32, ptr %4, align 4, !tbaa !23
  %30 = load i32, ptr %5, align 4, !tbaa !23
  %31 = icmp sgt i32 %30, 0
  br i1 %31, label %.lr.ph.i, label %stbi__vertical_flip_slices.exit

.lr.ph.i:                                         ; preds = %28
  %32 = load i32, ptr %6, align 4, !tbaa !23
  %33 = load i32, ptr %3, align 4, !tbaa !23
  %34 = mul i32 %32, %29
  %35 = mul i32 %34, %33
  %36 = sext i32 %33 to i64
  %37 = sext i32 %32 to i64
  %38 = mul nsw i64 %36, %37
  %39 = ashr i32 %29, 1
  %40 = icmp slt i32 %39, 1
  %.not32.i.i = icmp eq i64 %38, 0
  %or.cond.i.i = select i1 %40, i1 true, i1 %.not32.i.i
  %wide.trip.count.i.i = zext nneg i32 %39 to i64
  %41 = sext i32 %35 to i64
  br i1 %or.cond.i.i, label %stbi__vertical_flip_slices.exit, label %.lr.ph.preheader.i.i

.lr.ph.preheader.i.i:                             ; preds = %.lr.ph.i, %stbi__vertical_flip.exit.loopexit.i
  %.014.i = phi ptr [ %55, %stbi__vertical_flip.exit.loopexit.i ], [ %20, %.lr.ph.i ]
  %.01213.i = phi i32 [ %56, %stbi__vertical_flip.exit.loopexit.i ], [ 0, %.lr.ph.i ]
  call void @llvm.lifetime.start.p0(i64 2048, ptr nonnull %9)
  br label %.lr.ph.i.i

.lr.ph.i.i:                                       ; preds = %._crit_edge.i.i, %.lr.ph.preheader.i.i
  %indvars.iv.i.i = phi i64 [ 0, %.lr.ph.preheader.i.i ], [ %indvars.iv.next.i.i, %._crit_edge.i.i ]
  %42 = mul i64 %indvars.iv.i.i, %38
  %43 = getelementptr inbounds nuw i8, ptr %.014.i, i64 %42
  %44 = trunc i64 %indvars.iv.i.i to i32
  %45 = xor i32 %44, -1
  %46 = add i32 %29, %45
  %47 = sext i32 %46 to i64
  %48 = mul i64 %38, %47
  %49 = getelementptr inbounds nuw i8, ptr %.014.i, i64 %48
  br label %50

50:                                               ; preds = %50, %.lr.ph.i.i
  %.02935.i.i = phi i64 [ %38, %.lr.ph.i.i ], [ %54, %50 ]
  %.03034.i.i = phi ptr [ %49, %.lr.ph.i.i ], [ %53, %50 ]
  %.03133.i.i = phi ptr [ %43, %.lr.ph.i.i ], [ %52, %50 ]
  %51 = call i64 @llvm.umin.i64(i64 %.02935.i.i, i64 2048)
  call void @llvm.memcpy.p0.p0.i64(ptr nonnull align 16 %9, ptr align 1 %.03133.i.i, i64 %51, i1 false)
  call void @llvm.memcpy.p0.p0.i64(ptr align 1 %.03133.i.i, ptr align 1 %.03034.i.i, i64 %51, i1 false)
  call void @llvm.memcpy.p0.p0.i64(ptr align 1 %.03034.i.i, ptr nonnull align 16 %9, i64 %51, i1 false)
  %52 = getelementptr inbounds nuw i8, ptr %.03133.i.i, i64 %51
  %53 = getelementptr inbounds nuw i8, ptr %.03034.i.i, i64 %51
  %54 = sub i64 %.02935.i.i, %51
  %.not.i.i = icmp eq i64 %54, 0
  br i1 %.not.i.i, label %._crit_edge.i.i, label %50, !llvm.loop !109

._crit_edge.i.i:                                  ; preds = %50
  %indvars.iv.next.i.i = add nuw nsw i64 %indvars.iv.i.i, 1
  %exitcond.not.i.i = icmp eq i64 %indvars.iv.next.i.i, %wide.trip.count.i.i
  br i1 %exitcond.not.i.i, label %stbi__vertical_flip.exit.loopexit.i, label %.lr.ph.i.i, !llvm.loop !110

stbi__vertical_flip.exit.loopexit.i:              ; preds = %._crit_edge.i.i
  call void @llvm.lifetime.end.p0(i64 2048, ptr nonnull %9)
  %55 = getelementptr inbounds i8, ptr %.014.i, i64 %41
  %56 = add nuw nsw i32 %.01213.i, 1
  %exitcond.not.i = icmp eq i32 %56, %30
  br i1 %exitcond.not.i, label %stbi__vertical_flip_slices.exit, label %.lr.ph.preheader.i.i, !llvm.loop !111

stbi__vertical_flip_slices.exit:                  ; preds = %stbi__vertical_flip.exit.loopexit.i, %.lr.ph.i, %28, %26, %23
  call void @llvm.lifetime.end.p0(i64 224, ptr nonnull %10) #37
  ret ptr %20
}